target datalayout = "e-m:e-p270:32:32-p271:32:32-p272:64:64-i64:64-i128:128-f80:128-n8:16:32:64-S128"
target triple = "x86_64-pc-linux-gnu"

@_ZL19ZIP_GZip_InitParams = internal global ptr null, align 8
@.str = private unnamed_addr constant [40 x i8] c"Cannot get ZIP_GZip_InitParams function\00", align 1

; Function Attrs: mustprogress nounwind uwtable
define hidden noundef ptr @_ZN10ZipLibrary11init_paramsEmPmS0_i(i64 noundef %0, ptr noundef %1, ptr noundef %2, i32 noundef %3) #1 align 2 {
  %5 = alloca ptr, align 8
  %6 = alloca i64, align 8
  %7 = alloca ptr, align 8
  %8 = alloca ptr, align 8
  %9 = alloca i32, align 4
  store i64 %0, ptr %6, align 8
  store ptr %1, ptr %7, align 8
  store ptr %2, ptr %8, align 8
  store i32 %3, ptr %9, align 4
  call void @_ZL10initializeb(i1 noundef zeroext false)
  %10 = load ptr, ptr @_ZL19ZIP_GZip_InitParams, align 8
  %11 = icmp eq ptr %10, null
  br i1 %11, label %12, label %13

12:                                               ; preds = %4
  store ptr @.str, ptr %5, align 8
  br label %20

13:                                               ; preds = %4
  %14 = load ptr, ptr @_ZL19ZIP_GZip_InitParams, align 8
  %15 = load i64, ptr %6, align 8
  %16 = load ptr, ptr %7, align 8
  %17 = load ptr, ptr %8, align 8
  %18 = load i32, ptr %9, align 4
  %19 = call noundef ptr %14(i64 noundef %15, ptr noundef %16, ptr noundef %17, i32 noundef %18)
  store ptr %19, ptr %5, align 8
  br label %20

20:                                               ; preds = %13, %12
  %21 = load ptr, ptr %5, align 8
  ret ptr %21
}