; Function Attrs: mustprogress nounwind uwtable
define hidden noundef ptr @_ZN10ZipLibrary11init_paramsEmPmS0_i(i64 noundef %0, ptr noundef %1, ptr noundef %2, i32 noundef %3) local_unnamed_addr #0 align 2 {
  tail call fastcc void @_ZL10initializeb(i1 noundef zeroext false)
  %5 = load ptr, ptr @_ZL19ZIP_GZip_InitParams, align 8
  %6 = icmp eq ptr %5, null
  br i1 %6, label %9, label %7

7:                                                ; preds = %4
  %8 = tail call noundef ptr %5(i64 noundef %0, ptr noundef %1, ptr noundef %2, i32 noundef %3) #8
  br label %9

9:                                                ; preds = %4, %7
  %.0 = phi ptr [ %8, %7 ], [ @.str, %4 ]
  ret ptr %.0
}